target datalayout = "e-m:e-p270:32:32-p271:32:32-p272:64:64-i64:64-i128:128-f80:128-n8:16:32:64-S128"
target triple = "x86_64-pc-linux-gnu"

%struct.code = type { i8, i8, i16 }
%struct.z_stream_s = type { ptr, i32, i64, ptr, i32, i64, ptr, ptr, ptr, ptr, ptr, i32, i64, i64 }
%struct.inflate_state = type { i32, i32, i32, i32, i32, i32, i64, i64, ptr, i32, i32, i32, i32, ptr, i64, i32, i32, i32, i32, ptr, ptr, i32, i32, i32, i32, i32, i32, ptr, [320 x i16], [288 x i16], [1444 x %struct.code], i32, i32, i32 }

; Function Attrs: nounwind uwtable
define i32 @inflatePrime(ptr noundef %0, i32 noundef %1, i32 noundef %2) #0 {
  %4 = alloca i32, align 4
  %5 = alloca ptr, align 8
  %6 = alloca i32, align 4
  %7 = alloca i32, align 4
  %8 = alloca ptr, align 8
  %9 = alloca i32, align 4
  store ptr %0, ptr %5, align 8, !tbaa !3
  store i32 %1, ptr %6, align 4, !tbaa !39
  store i32 %2, ptr %7, align 4, !tbaa !39
  call void @llvm.lifetime.start.p0(i64 8, ptr %8) #4
  %10 = load ptr, ptr %5, align 8, !tbaa !3
  %11 = icmp eq ptr %10, null
  br i1 %11, label %17, label %12

12:                                               ; preds = %3
  %13 = load ptr, ptr %5, align 8, !tbaa !3
  %14 = getelementptr inbounds nuw %struct.z_stream_s, ptr %13, i32 0, i32 7
  %15 = load ptr, ptr %14, align 8, !tbaa !8
  %16 = icmp eq ptr %15, null
  br i1 %16, label %17, label %18

17:                                               ; preds = %12, %3
  store i32 -2, ptr %4, align 4
  store i32 1, ptr %9, align 4
  br label %64

18:                                               ; preds = %12
  %19 = load ptr, ptr %5, align 8, !tbaa !3
  %20 = getelementptr inbounds nuw %struct.z_stream_s, ptr %19, i32 0, i32 7
  %21 = load ptr, ptr %20, align 8, !tbaa !8
  store ptr %21, ptr %8, align 8, !tbaa !14
  %22 = load i32, ptr %6, align 4, !tbaa !39
  %23 = icmp slt i32 %22, 0
  br i1 %23, label %24, label %29

24:                                               ; preds = %18
  %25 = load ptr, ptr %8, align 8, !tbaa !14
  %26 = getelementptr inbounds nuw %struct.inflate_state, ptr %25, i32 0, i32 14
  store i64 0, ptr %26, align 8, !tbaa !29
  %27 = load ptr, ptr %8, align 8, !tbaa !14
  %28 = getelementptr inbounds nuw %struct.inflate_state, ptr %27, i32 0, i32 15
  store i32 0, ptr %28, align 8, !tbaa !30
  store i32 0, ptr %4, align 4
  store i32 1, ptr %9, align 4
  br label %64

29:                                               ; preds = %18
  %30 = load i32, ptr %6, align 4, !tbaa !39
  %31 = icmp sgt i32 %30, 16
  br i1 %31, label %39, label %32

32:                                               ; preds = %29
  %33 = load ptr, ptr %8, align 8, !tbaa !14
  %34 = getelementptr inbounds nuw %struct.inflate_state, ptr %33, i32 0, i32 15
  %35 = load i32, ptr %34, align 8, !tbaa !30
  %36 = load i32, ptr %6, align 4, !tbaa !39
  %37 = add i32 %35, %36
  %38 = icmp ugt i32 %37, 32
  br i1 %38, label %39, label %40

39:                                               ; preds = %32, %29
  store i32 -2, ptr %4, align 4
  store i32 1, ptr %9, align 4
  br label %64

40:                                               ; preds = %32
  %41 = load i32, ptr %6, align 4, !tbaa !39
  %42 = zext i32 %41 to i64
  %43 = shl i64 1, %42
  %44 = sub nsw i64 %43, 1
  %45 = load i32, ptr %7, align 4, !tbaa !39
  %46 = sext i32 %45 to i64
  %47 = and i64 %46, %44
  %48 = trunc i64 %47 to i32
  store i32 %48, ptr %7, align 4, !tbaa !39
  %49 = load i32, ptr %7, align 4, !tbaa !39
  %50 = load ptr, ptr %8, align 8, !tbaa !14
  %51 = getelementptr inbounds nuw %struct.inflate_state, ptr %50, i32 0, i32 15
  %52 = load i32, ptr %51, align 8, !tbaa !30
  %53 = shl i32 %49, %52
  %54 = sext i32 %53 to i64
  %55 = load ptr, ptr %8, align 8, !tbaa !14
  %56 = getelementptr inbounds nuw %struct.inflate_state, ptr %55, i32 0, i32 14
  %57 = load i64, ptr %56, align 8, !tbaa !29
  %58 = add i64 %57, %54
  store i64 %58, ptr %56, align 8, !tbaa !29
  %59 = load i32, ptr %6, align 4, !tbaa !39
  %60 = load ptr, ptr %8, align 8, !tbaa !14
  %61 = getelementptr inbounds nuw %struct.inflate_state, ptr %60, i32 0, i32 15
  %62 = load i32, ptr %61, align 8, !tbaa !30
  %63 = add i32 %62, %59
  store i32 %63, ptr %61, align 8, !tbaa !30
  store i32 0, ptr %4, align 4
  store i32 1, ptr %9, align 4
  br label %64

64:                                               ; preds = %40, %39, %24, %17
  call void @llvm.lifetime.end.p0(i64 8, ptr %8) #4
  %65 = load i32, ptr %4, align 4
  ret i32 %65
}