; Function Attrs: mustprogress nofree norecurse nosync nounwind willreturn memory(readwrite, inaccessiblemem: none) uwtable
define range(i32 -2, 1) i32 @inflatePrime(ptr noundef readonly %0, i32 noundef %1, i32 noundef %2) local_unnamed_addr #0 {
  %4 = icmp eq ptr %0, null
  br i1 %4, label %31, label %5

5:                                                ; preds = %3
  %6 = getelementptr inbounds nuw i8, ptr %0, i64 56
  %7 = load ptr, ptr %6, align 8, !tbaa !3
  %8 = icmp eq ptr %7, null
  br i1 %8, label %31, label %9

9:                                                ; preds = %5
  %10 = icmp slt i32 %1, 0
  br i1 %10, label %11, label %14

11:                                               ; preds = %9
  %12 = getelementptr inbounds nuw i8, ptr %7, i64 72
  store i64 0, ptr %12, align 8, !tbaa !23
  %13 = getelementptr inbounds nuw i8, ptr %7, i64 80
  store i32 0, ptr %13, align 8, !tbaa !24
  br label %31

14:                                               ; preds = %9
  %15 = icmp samesign ugt i32 %1, 16
  br i1 %15, label %31, label %16

16:                                               ; preds = %14
  %17 = getelementptr inbounds nuw i8, ptr %7, i64 80
  %18 = load i32, ptr %17, align 8, !tbaa !24
  %19 = add i32 %18, %1
  %20 = icmp ugt i32 %19, 32
  br i1 %20, label %31, label %21

21:                                               ; preds = %16
  %22 = zext nneg i32 %1 to i64
  %notmask = shl nsw i64 -1, %22
  %23 = trunc i64 %notmask to i32
  %24 = xor i32 %23, -1
  %25 = and i32 %2, %24
  %26 = shl i32 %25, %18
  %27 = sext i32 %26 to i64
  %28 = getelementptr inbounds nuw i8, ptr %7, i64 72
  %29 = load i64, ptr %28, align 8, !tbaa !23
  %30 = add i64 %29, %27
  store i64 %30, ptr %28, align 8, !tbaa !23
  store i32 %19, ptr %17, align 8, !tbaa !24
  br label %31

31:                                               ; preds = %14, %16, %3, %5, %21, %11
  %.0 = phi i32 [ 0, %11 ], [ 0, %21 ], [ -2, %5 ], [ -2, %3 ], [ -2, %16 ], [ -2, %14 ]
  ret i32 %.0
}